target datalayout = "e-m:e-p270:32:32-p271:32:32-p272:64:64-i64:64-i128:128-f80:128-n8:16:32:64-S128"
target triple = "x86_64-unknown-linux-gnu"

%struct.QemuMutex = type { %union.pthread_mutex_t, i8 }
%union.pthread_mutex_t = type { %struct.__pthread_mutex_s }
%struct.__pthread_mutex_s = type { i32, i32, i32, i32, i32, i16, i16, %struct.__pthread_internal_list }
%struct.__pthread_internal_list = type { ptr, ptr }
%struct.StreamBlockJob = type { %struct.BlockJob, ptr, ptr, ptr, ptr, ptr, i32, ptr, i8 }
%struct.BlockJob = type { %struct.Job, i32, i64, %struct.RateLimit, ptr, %struct.Notifier, %struct.Notifier, %struct.Notifier, %struct.Notifier, %struct.Notifier, ptr }
%struct.Job = type { ptr, ptr, ptr, i8, i8, ptr, ptr, %struct.ProgressMeter, ptr, i32, i32, %struct.QEMUTimer, i32, i8, i8, i8, i8, i8, i8, i32, ptr, %struct.NotifierList, %struct.NotifierList, %struct.NotifierList, %struct.NotifierList, %struct.NotifierList, %struct.anon.11, ptr, %struct.anon.12 }
%struct.ProgressMeter = type { i64, i64, %struct.QemuMutex }
%struct.QEMUTimer = type { i64, ptr, ptr, ptr, ptr, i32, i32 }
%struct.NotifierList = type { %struct.anon.10 }
%struct.anon.10 = type { ptr }
%struct.anon.11 = type { ptr, ptr }
%struct.anon.12 = type { ptr, ptr }
%struct.RateLimit = type { %struct.QemuMutex, i64, i64, i64, i64, i64 }
%struct.Notifier = type { ptr, %struct.anon.13 }
%struct.anon.13 = type { ptr, ptr }

; Function Attrs: nounwind sspstrong uwtable
define internal void @stream_clean(ptr noundef %job) #0 {
entry:
  %job.addr = alloca ptr, align 8
  %s = alloca ptr, align 8
  %__mptr = alloca ptr, align 8
  %tmp = alloca ptr, align 8
  store ptr %job, ptr %job.addr, align 8
  %0 = load ptr, ptr %job.addr, align 8
  store ptr %0, ptr %__mptr, align 8
  %1 = load ptr, ptr %__mptr, align 8
  %add.ptr = getelementptr i8, ptr %1, i64 0
  store ptr %add.ptr, ptr %tmp, align 8
  %2 = load ptr, ptr %tmp, align 8
  store ptr %2, ptr %s, align 8
  %3 = load ptr, ptr %s, align 8
  %cor_filter_bs = getelementptr inbounds %struct.StreamBlockJob, ptr %3, i32 0, i32 4
  %4 = load ptr, ptr %cor_filter_bs, align 8
  %tobool = icmp ne ptr %4, null
  br i1 %tobool, label %if.then, label %if.end

if.then:                                          ; preds = %entry
  %5 = load ptr, ptr %s, align 8
  %cor_filter_bs1 = getelementptr inbounds %struct.StreamBlockJob, ptr %5, i32 0, i32 4
  %6 = load ptr, ptr %cor_filter_bs1, align 8
  call void @bdrv_cor_filter_drop(ptr noundef %6)
  %7 = load ptr, ptr %s, align 8
  %cor_filter_bs2 = getelementptr inbounds %struct.StreamBlockJob, ptr %7, i32 0, i32 4
  store ptr null, ptr %cor_filter_bs2, align 8
  br label %if.end

if.end:                                           ; preds = %if.then, %entry
  %8 = load ptr, ptr %s, align 8
  %blk = getelementptr inbounds %struct.StreamBlockJob, ptr %8, i32 0, i32 1
  %9 = load ptr, ptr %blk, align 8
  call void @blk_unref(ptr noundef %9)
  %10 = load ptr, ptr %s, align 8
  %blk3 = getelementptr inbounds %struct.StreamBlockJob, ptr %10, i32 0, i32 1
  store ptr null, ptr %blk3, align 8
  %11 = load ptr, ptr %s, align 8
  %bs_read_only = getelementptr inbounds %struct.StreamBlockJob, ptr %11, i32 0, i32 8
  %12 = load i8, ptr %bs_read_only, align 8
  %tobool4 = trunc i8 %12 to i1
  br i1 %tobool4, label %if.then5, label %if.end6

if.then5:                                         ; preds = %if.end
  %13 = load ptr, ptr %s, align 8
  %target_bs = getelementptr inbounds %struct.StreamBlockJob, ptr %13, i32 0, i32 5
  %14 = load ptr, ptr %target_bs, align 8
  %call = call i32 @bdrv_reopen_set_read_only(ptr noundef %14, i1 noundef zeroext true, ptr noundef null)
  br label %if.end6

if.end6:                                          ; preds = %if.then5, %if.end
  %15 = load ptr, ptr %s, align 8
  %backing_file_str = getelementptr inbounds %struct.StreamBlockJob, ptr %15, i32 0, i32 7
  %16 = load ptr, ptr %backing_file_str, align 8
  call void @g_free(ptr noundef %16)
  ret void
}