; Function Attrs: nounwind sspstrong uwtable
define internal void @stream_clean(ptr noundef captures(none) %job) #0 {
entry:
  %cor_filter_bs = getelementptr inbounds nuw i8, ptr %job, i64 544
  %0 = load ptr, ptr %cor_filter_bs, align 8
  %tobool.not = icmp eq ptr %0, null
  br i1 %tobool.not, label %if.end, label %if.then

if.then:                                          ; preds = %entry
  tail call void @bdrv_cor_filter_drop(ptr noundef nonnull %0) #5
  store ptr null, ptr %cor_filter_bs, align 8
  br label %if.end

if.end:                                           ; preds = %if.then, %entry
  %blk = getelementptr inbounds nuw i8, ptr %job, i64 520
  %1 = load ptr, ptr %blk, align 8
  tail call void @blk_unref(ptr noundef %1) #5
  store ptr null, ptr %blk, align 8
  %bs_read_only = getelementptr inbounds nuw i8, ptr %job, i64 576
  %2 = load i8, ptr %bs_read_only, align 8
  %tobool4 = trunc i8 %2 to i1
  br i1 %tobool4, label %if.then5, label %if.end6

if.then5:                                         ; preds = %if.end
  %target_bs = getelementptr inbounds nuw i8, ptr %job, i64 552
  %3 = load ptr, ptr %target_bs, align 8
  %call = tail call i32 @bdrv_reopen_set_read_only(ptr noundef %3, i1 noundef zeroext true, ptr noundef null) #5
  br label %if.end6

if.end6:                                          ; preds = %if.then5, %if.end
  %backing_file_str = getelementptr inbounds nuw i8, ptr %job, i64 568
  %4 = load ptr, ptr %backing_file_str, align 8
  tail call void @g_free(ptr noundef %4) #5
  ret void
}